target datalayout = "e-m:e-p270:32:32-p271:32:32-p272:64:64-i64:64-i128:128-f80:128-n8:16:32:64-S128"
target triple = "x86_64-pc-linux-gnu"

%"class.arrow::internal::BitBlockCounter" = type { ptr, i64, i64 }
%"class.arrow::internal::OptionalBinaryBitBlockCounter" = type { i32, i64, i64, %"class.arrow::internal::BitBlockCounter", %"class.arrow::internal::BinaryBitBlockCounter" }
%"class.arrow::internal::BinaryBitBlockCounter" = type { ptr, i64, ptr, i64, i64 }

@_ZN5arrow4util8internalL14kNonNullFillerE = internal constant i8 0, align 1

; Function Attrs: mustprogress uwtable
define linkonce_odr void @_ZN5arrow8internal21BinaryBitBlockCounterC2EPKhlS3_ll(ptr noundef nonnull align 8 dereferenceable(40) %0, ptr noundef %1, i64 noundef %2, ptr noundef %3, i64 noundef %4, i64 noundef %5) unnamed_addr #5 comdat align 2 {
  %7 = alloca ptr, align 8
  %8 = alloca ptr, align 8
  %9 = alloca i64, align 8
  %10 = alloca ptr, align 8
  %11 = alloca i64, align 8
  %12 = alloca i64, align 8
  store ptr %0, ptr %7, align 8, !tbaa !61
  store ptr %1, ptr %8, align 8, !tbaa !24
  store i64 %2, ptr %9, align 8, !tbaa !8
  store ptr %3, ptr %10, align 8, !tbaa !24
  store i64 %4, ptr %11, align 8, !tbaa !8
  store i64 %5, ptr %12, align 8, !tbaa !8
  %13 = load ptr, ptr %7, align 8
  %14 = getelementptr inbounds nuw %"class.arrow::internal::BinaryBitBlockCounter", ptr %13, i32 0, i32 0
  %15 = load ptr, ptr %8, align 8, !tbaa !24
  %16 = call noundef ptr @_ZN5arrow4util11MakeNonNullIKhEEPT_S4_(ptr noundef %15)
  %17 = load i64, ptr %9, align 8, !tbaa !8
  %18 = sdiv i64 %17, 8
  %19 = getelementptr inbounds i8, ptr %16, i64 %18
  store ptr %19, ptr %14, align 8, !tbaa !63
  %20 = getelementptr inbounds nuw %"class.arrow::internal::BinaryBitBlockCounter", ptr %13, i32 0, i32 1
  %21 = load i64, ptr %9, align 8, !tbaa !8
  %22 = srem i64 %21, 8
  store i64 %22, ptr %20, align 8, !tbaa !64
  %23 = getelementptr inbounds nuw %"class.arrow::internal::BinaryBitBlockCounter", ptr %13, i32 0, i32 2
  %24 = load ptr, ptr %10, align 8, !tbaa !24
  %25 = call noundef ptr @_ZN5arrow4util11MakeNonNullIKhEEPT_S4_(ptr noundef %24)
  %26 = load i64, ptr %11, align 8, !tbaa !8
  %27 = sdiv i64 %26, 8
  %28 = getelementptr inbounds i8, ptr %25, i64 %27
  store ptr %28, ptr %23, align 8, !tbaa !65
  %29 = getelementptr inbounds nuw %"class.arrow::internal::BinaryBitBlockCounter", ptr %13, i32 0, i32 3
  %30 = load i64, ptr %11, align 8, !tbaa !8
  %31 = srem i64 %30, 8
  store i64 %31, ptr %29, align 8, !tbaa !66
  %32 = getelementptr inbounds nuw %"class.arrow::internal::BinaryBitBlockCounter", ptr %13, i32 0, i32 4
  %33 = load i64, ptr %12, align 8, !tbaa !8
  store i64 %33, ptr %32, align 8, !tbaa !67
  ret void
}

; Function Attrs: mustprogress uwtable
define linkonce_odr void @_ZN5arrow8internal15BitBlockCounterC2EPKhll(ptr noundef nonnull align 8 dereferenceable(24) %0, ptr noundef %1, i64 noundef %2, i64 noundef %3) unnamed_addr #5 comdat align 2 {
  %5 = alloca ptr, align 8
  %6 = alloca ptr, align 8
  %7 = alloca i64, align 8
  %8 = alloca i64, align 8
  store ptr %0, ptr %5, align 8, !tbaa !3
  store ptr %1, ptr %6, align 8, !tbaa !24
  store i64 %2, ptr %7, align 8, !tbaa !8
  store i64 %3, ptr %8, align 8, !tbaa !8
  %9 = load ptr, ptr %5, align 8
  %10 = getelementptr inbounds nuw %"class.arrow::internal::BitBlockCounter", ptr %9, i32 0, i32 0
  %11 = load ptr, ptr %6, align 8, !tbaa !24
  %12 = call noundef ptr @_ZN5arrow4util11MakeNonNullIKhEEPT_S4_(ptr noundef %11)
  %13 = load i64, ptr %7, align 8, !tbaa !8
  %14 = sdiv i64 %13, 8
  %15 = getelementptr inbounds i8, ptr %12, i64 %14
  store ptr %15, ptr %10, align 8, !tbaa !12
  %16 = getelementptr inbounds nuw %"class.arrow::internal::BitBlockCounter", ptr %9, i32 0, i32 1
  %17 = load i64, ptr %8, align 8, !tbaa !8
  store i64 %17, ptr %16, align 8, !tbaa !16
  %18 = getelementptr inbounds nuw %"class.arrow::internal::BitBlockCounter", ptr %9, i32 0, i32 2
  %19 = load i64, ptr %7, align 8, !tbaa !8
  %20 = srem i64 %19, 8
  store i64 %20, ptr %18, align 8, !tbaa !15
  ret void
}

; Function Attrs: inlinehint mustprogress nounwind uwtable
define linkonce_odr noundef ptr @_ZN5arrow4util11MakeNonNullIKhEEPT_S4_(ptr noundef %0) #2 comdat {
  %2 = alloca ptr, align 8
  %3 = alloca ptr, align 8
  store ptr %0, ptr %3, align 8, !tbaa !24
  %4 = load ptr, ptr %3, align 8, !tbaa !24
  %5 = icmp ne ptr %4, null
  %6 = xor i1 %5, true
  %7 = xor i1 %6, true
  %8 = zext i1 %7 to i64
  %9 = call i64 @llvm.expect.i64(i64 %8, i64 1)
  %10 = icmp ne i64 %9, 0
  br i1 %10, label %11, label %13

11:                                               ; preds = %1
  %12 = load ptr, ptr %3, align 8, !tbaa !24
  store ptr %12, ptr %2, align 8
  br label %14

13:                                               ; preds = %1
  store ptr @_ZN5arrow4util8internalL14kNonNullFillerE, ptr %2, align 8
  br label %14

14:                                               ; preds = %13, %11
  %15 = load ptr, ptr %2, align 8
  ret ptr %15
}

; Function Attrs: mustprogress nounwind uwtable
define linkonce_odr noundef i32 @_ZN5arrow8internal29OptionalBinaryBitBlockCounter20HasBitmapFromBitmapsEbb(i1 noundef zeroext %0, i1 noundef zeroext %1) #0 comdat align 2 {
  %3 = alloca i32, align 4
  %4 = alloca i8, align 1
  %5 = alloca i8, align 1
  %6 = zext i1 %0 to i8
  store i8 %6, ptr %4, align 1, !tbaa !60
  %7 = zext i1 %1 to i8
  store i8 %7, ptr %5, align 1, !tbaa !60
  %8 = load i8, ptr %4, align 1, !tbaa !60, !range !49, !noundef !50
  %9 = trunc i8 %8 to i1
  %10 = zext i1 %9 to i32
  %11 = load i8, ptr %5, align 1, !tbaa !60, !range !49, !noundef !50
  %12 = trunc i8 %11 to i1
  %13 = zext i1 %12 to i32
  %14 = add nsw i32 %10, %13
  switch i32 %14, label %17 [
    i32 0, label %15
    i32 1, label %16
  ]

15:                                               ; preds = %2
  store i32 2, ptr %3, align 4
  br label %18

16:                                               ; preds = %2
  store i32 1, ptr %3, align 4
  br label %18

17:                                               ; preds = %2
  store i32 0, ptr %3, align 4
  br label %18

18:                                               ; preds = %17, %16, %15
  %19 = load i32, ptr %3, align 4
  ret i32 %19
}

; Function Attrs: mustprogress uwtable
define void @_ZN5arrow8internal29OptionalBinaryBitBlockCounterC2EPKhlS3_ll(ptr noundef nonnull align 8 dereferenceable(88) %0, ptr noundef %1, i64 noundef %2, ptr noundef %3, i64 noundef %4, i64 noundef %5) unnamed_addr #5 align 2 {
  %7 = alloca ptr, align 8
  %8 = alloca ptr, align 8
  %9 = alloca i64, align 8
  %10 = alloca ptr, align 8
  %11 = alloca i64, align 8
  %12 = alloca i64, align 8
  store ptr %0, ptr %7, align 8, !tbaa !52
  store ptr %1, ptr %8, align 8, !tbaa !24
  store i64 %2, ptr %9, align 8, !tbaa !8
  store ptr %3, ptr %10, align 8, !tbaa !24
  store i64 %4, ptr %11, align 8, !tbaa !8
  store i64 %5, ptr %12, align 8, !tbaa !8
  %13 = load ptr, ptr %7, align 8
  %14 = getelementptr inbounds nuw %"class.arrow::internal::OptionalBinaryBitBlockCounter", ptr %13, i32 0, i32 0
  %15 = load ptr, ptr %8, align 8, !tbaa !24
  %16 = icmp ne ptr %15, null
  %17 = load ptr, ptr %10, align 8, !tbaa !24
  %18 = icmp ne ptr %17, null
  %19 = call noundef i32 @_ZN5arrow8internal29OptionalBinaryBitBlockCounter20HasBitmapFromBitmapsEbb(i1 noundef zeroext %16, i1 noundef zeroext %18)
  store i32 %19, ptr %14, align 8, !tbaa !54
  %20 = getelementptr inbounds nuw %"class.arrow::internal::OptionalBinaryBitBlockCounter", ptr %13, i32 0, i32 1
  store i64 0, ptr %20, align 8, !tbaa !58
  %21 = getelementptr inbounds nuw %"class.arrow::internal::OptionalBinaryBitBlockCounter", ptr %13, i32 0, i32 2
  %22 = load i64, ptr %12, align 8, !tbaa !8
  store i64 %22, ptr %21, align 8, !tbaa !59
  %23 = getelementptr inbounds nuw %"class.arrow::internal::OptionalBinaryBitBlockCounter", ptr %13, i32 0, i32 3
  %24 = load ptr, ptr %8, align 8, !tbaa !24
  %25 = icmp ne ptr %24, null
  br i1 %25, label %26, label %28

26:                                               ; preds = %6
  %27 = load ptr, ptr %8, align 8, !tbaa !24
  br label %30

28:                                               ; preds = %6
  %29 = load ptr, ptr %10, align 8, !tbaa !24
  br label %30

30:                                               ; preds = %28, %26
  %31 = phi ptr [ %27, %26 ], [ %29, %28 ]
  %32 = call noundef ptr @_ZN5arrow4util11MakeNonNullIKhEEPT_S4_(ptr noundef %31)
  %33 = load ptr, ptr %8, align 8, !tbaa !24
  %34 = icmp ne ptr %33, null
  br i1 %34, label %35, label %37

35:                                               ; preds = %30
  %36 = load i64, ptr %9, align 8, !tbaa !8
  br label %39

37:                                               ; preds = %30
  %38 = load i64, ptr %11, align 8, !tbaa !8
  br label %39

39:                                               ; preds = %37, %35
  %40 = phi i64 [ %36, %35 ], [ %38, %37 ]
  %41 = load i64, ptr %12, align 8, !tbaa !8
  call void @_ZN5arrow8internal15BitBlockCounterC2EPKhll(ptr noundef nonnull align 8 dereferenceable(24) %23, ptr noundef %32, i64 noundef %40, i64 noundef %41)
  %42 = getelementptr inbounds nuw %"class.arrow::internal::OptionalBinaryBitBlockCounter", ptr %13, i32 0, i32 4
  %43 = load ptr, ptr %8, align 8, !tbaa !24
  %44 = call noundef ptr @_ZN5arrow4util11MakeNonNullIKhEEPT_S4_(ptr noundef %43)
  %45 = load i64, ptr %9, align 8, !tbaa !8
  %46 = load ptr, ptr %10, align 8, !tbaa !24
  %47 = call noundef ptr @_ZN5arrow4util11MakeNonNullIKhEEPT_S4_(ptr noundef %46)
  %48 = load i64, ptr %11, align 8, !tbaa !8
  %49 = load i64, ptr %12, align 8, !tbaa !8
  call void @_ZN5arrow8internal21BinaryBitBlockCounterC2EPKhlS3_ll(ptr noundef nonnull align 8 dereferenceable(40) %42, ptr noundef %44, i64 noundef %45, ptr noundef %47, i64 noundef %48, i64 noundef %49)
  ret void
}