; Function Attrs: mustprogress nofree norecurse nosync nounwind willreturn memory(argmem: write) uwtable
define void @_ZN5arrow8internal29OptionalBinaryBitBlockCounterC2EPKhlS3_ll(ptr noundef nonnull writeonly align 8 captures(none) dereferenceable(88) initializes((0, 4), (8, 88)) %0, ptr noundef %1, i64 noundef %2, ptr noundef %3, i64 noundef %4, i64 noundef %5) unnamed_addr #4 align 2 {
  %7 = icmp ne ptr %1, null
  %8 = icmp ne ptr %3, null
  %switch.selectcmp.i = xor i1 %7, %8
  %switch.select.i = zext i1 %switch.selectcmp.i to i32
  %9 = or i1 %7, %8
  %switch.select4.i = select i1 %9, i32 %switch.select.i, i32 2
  store i32 %switch.select4.i, ptr %0, align 8, !tbaa !34
  %10 = getelementptr inbounds nuw i8, ptr %0, i64 8
  store i64 0, ptr %10, align 8, !tbaa !38
  %11 = getelementptr inbounds nuw i8, ptr %0, i64 16
  store i64 %5, ptr %11, align 8, !tbaa !39
  %12 = getelementptr inbounds nuw i8, ptr %0, i64 24
  %13 = select i1 %7, ptr %1, ptr %3
  %.not.i = icmp eq ptr %13, null
  %_ZN5arrow4util8internalL14kNonNullFillerE..i = select i1 %.not.i, ptr @_ZN5arrow4util8internalL14kNonNullFillerE, ptr %13, !prof !18
  %14 = select i1 %7, i64 %2, i64 %4
  %15 = sdiv i64 %14, 8
  %16 = getelementptr inbounds i8, ptr %_ZN5arrow4util8internalL14kNonNullFillerE..i, i64 %15
  store ptr %16, ptr %12, align 8, !tbaa !7
  %17 = getelementptr inbounds nuw i8, ptr %0, i64 32
  store i64 %5, ptr %17, align 8, !tbaa !12
  %18 = getelementptr inbounds nuw i8, ptr %0, i64 40
  %19 = srem i64 %14, 8
  store i64 %19, ptr %18, align 8, !tbaa !11
  %20 = getelementptr inbounds nuw i8, ptr %0, i64 48
  %.not.i15 = icmp eq ptr %1, null
  %_ZN5arrow4util8internalL14kNonNullFillerE..i16 = select i1 %.not.i15, ptr @_ZN5arrow4util8internalL14kNonNullFillerE, ptr %1, !prof !18
  %.not.i17 = icmp eq ptr %3, null
  %_ZN5arrow4util8internalL14kNonNullFillerE..i18 = select i1 %.not.i17, ptr @_ZN5arrow4util8internalL14kNonNullFillerE, ptr %3, !prof !18
  %21 = sdiv i64 %2, 8
  %22 = getelementptr inbounds i8, ptr %_ZN5arrow4util8internalL14kNonNullFillerE..i16, i64 %21
  store ptr %22, ptr %20, align 8, !tbaa !40
  %23 = getelementptr inbounds nuw i8, ptr %0, i64 56
  %24 = srem i64 %2, 8
  store i64 %24, ptr %23, align 8, !tbaa !41
  %25 = getelementptr inbounds nuw i8, ptr %0, i64 64
  %26 = sdiv i64 %4, 8
  %27 = getelementptr inbounds i8, ptr %_ZN5arrow4util8internalL14kNonNullFillerE..i18, i64 %26
  store ptr %27, ptr %25, align 8, !tbaa !42
  %28 = getelementptr inbounds nuw i8, ptr %0, i64 72
  %29 = srem i64 %4, 8
  store i64 %29, ptr %28, align 8, !tbaa !43
  %30 = getelementptr inbounds nuw i8, ptr %0, i64 80
  store i64 %5, ptr %30, align 8, !tbaa !44
  ret void
}